; Function Attrs: mustprogress uwtable
define void @_ZNK6icu_756Format11parseObjectERKNS_13UnicodeStringERNS_11FormattableER10UErrorCode(ptr noundef nonnull align 8 dereferenceable(322) %this, ptr noundef nonnull align 8 dereferenceable(64) %source, ptr noundef nonnull align 8 dereferenceable(112) %result, ptr nocapture noundef nonnull align 4 dereferenceable(4) %status) local_unnamed_addr #8 align 2 personality ptr @__gxx_personality_v0 {
entry:
  %parsePosition = alloca %"class.icu_75::ParsePosition", align 8
  %0 = load i32, ptr %status, align 4
  %cmp.i = icmp slt i32 %0, 1
  br i1 %cmp.i, label %if.end, label %return

if.end:                                           ; preds = %entry
  store ptr getelementptr inbounds ({ [5 x ptr] }, ptr @_ZTVN6icu_7513ParsePositionE, i64 0, i32 0, i64 2), ptr %parsePosition, align 8
  %index.i = getelementptr inbounds i8, ptr %parsePosition, i64 8
  store i32 0, ptr %index.i, align 8
  %errorIndex.i = getelementptr inbounds i8, ptr %parsePosition, i64 12
  store i32 -1, ptr %errorIndex.i, align 4
  %vtable = load ptr, ptr %this, align 8
  %vfn = getelementptr inbounds i8, ptr %vtable, i64 56
  %1 = load ptr, ptr %vfn, align 8
  invoke void %1(ptr noundef nonnull align 8 dereferenceable(322) %this, ptr noundef nonnull align 8 dereferenceable(64) %source, ptr noundef nonnull align 8 dereferenceable(112) %result, ptr noundef nonnull align 8 dereferenceable(16) %parsePosition)
          to label %invoke.cont unwind label %lpad

invoke.cont:                                      ; preds = %if.end
  %2 = load i32, ptr %index.i, align 8
  %cmp = icmp eq i32 %2, 0
  br i1 %cmp, label %if.then4, label %if.end5

if.then4:                                         ; preds = %invoke.cont
  store i32 3, ptr %status, align 4
  br label %if.end5

lpad:                                             ; preds = %if.end
  %3 = landingpad { ptr, i32 }
          cleanup
  call void @_ZN6icu_7513ParsePositionD1Ev(ptr noundef nonnull align 8 dereferenceable(16) %parsePosition) #13
  resume { ptr, i32 } %3

if.end5:                                          ; preds = %if.then4, %invoke.cont
  call void @_ZN6icu_7513ParsePositionD1Ev(ptr noundef nonnull align 8 dereferenceable(16) %parsePosition) #13
  br label %return

return:                                           ; preds = %entry, %if.end5
  ret void
}